target datalayout = "e-m:e-p270:32:32-p271:32:32-p272:64:64-i64:64-i128:128-f80:128-n8:16:32:64-S128"
target triple = "x86_64-pc-linux-gnu"

%struct._oid_info_t = type { i32, ptr, i32, ptr, ptr, i32, ptr, ptr, ptr }

@.str.16 = private unnamed_addr constant [18 x i8] c"*** Empty OID ***\00", align 1
@.str.17 = private unnamed_addr constant [1 x i8] zeroinitializer, align 1
@.str.18 = private unnamed_addr constant [4 x i8] c"%u.\00", align 1
@.str.20 = private unnamed_addr constant [22 x i8] c"*** Malformed OID ***\00", align 1
@.str.21 = private unnamed_addr constant [2 x i8] c".\00", align 1
@oid_root = internal global { i32, [4 x i8], ptr, i32, [4 x i8], ptr, ptr, i32, [4 x i8], ptr, ptr, ptr } { i32 0, [4 x i8] zeroinitializer, ptr null, i32 0, [4 x i8] zeroinitializer, ptr null, ptr @unknown_type, i32 -2, [4 x i8] zeroinitializer, ptr null, ptr null, ptr null }, align 8

; Function Attrs: null_pointer_is_valid sspstrong uwtable
define ptr @rel_oid_subid2string(ptr noundef %0, ptr noundef %1, i32 noundef %2, i1 noundef zeroext %3) #0 {
  %5 = alloca ptr, align 8
  %6 = alloca ptr, align 8
  %7 = alloca ptr, align 8
  %8 = alloca i32, align 4
  %9 = alloca i8, align 1
  %10 = alloca ptr, align 8
  %11 = alloca i64, align 8
  %12 = alloca i32, align 4
  store ptr %0, ptr %6, align 8
  store ptr %1, ptr %7, align 8
  store i32 %2, ptr %8, align 4
  %13 = zext i1 %3 to i8
  store i8 %13, ptr %9, align 1
  call void @llvm.lifetime.start.p0(i64 8, ptr %10) #6
  call void @llvm.lifetime.start.p0(i64 8, ptr %11) #6
  %14 = load ptr, ptr %7, align 8
  %15 = icmp ne ptr %14, null
  br i1 %15, label %16, label %19

16:                                               ; preds = %4
  %17 = load i32, ptr %8, align 4
  %18 = icmp eq i32 %17, 0
  br i1 %18, label %19, label %22

19:                                               ; preds = %16, %4
  %20 = load ptr, ptr %6, align 8
  %21 = call noalias ptr @wmem_strdup(ptr noundef %20, ptr noundef @.str.16)
  store ptr %21, ptr %5, align 8
  store i32 1, ptr %12, align 4
  br label %47

22:                                               ; preds = %16
  %23 = load ptr, ptr %6, align 8
  %24 = call noalias ptr @wmem_strbuf_new(ptr noundef %23, ptr noundef @.str.17)
  store ptr %24, ptr %10, align 8
  %25 = load i8, ptr %9, align 1, !range !9, !noundef !10
  %26 = trunc i8 %25 to i1
  br i1 %26, label %29, label %27

27:                                               ; preds = %22
  %28 = load ptr, ptr %10, align 8
  call void @wmem_strbuf_append_c(ptr noundef %28, i8 noundef signext 46)
  br label %29

29:                                               ; preds = %27, %22
  br label %30

30:                                               ; preds = %35, %29
  %31 = load ptr, ptr %10, align 8
  %32 = load ptr, ptr %7, align 8
  %33 = getelementptr i32, ptr %32, i32 1
  store ptr %33, ptr %7, align 8
  %34 = load i32, ptr %32, align 4
  call void (ptr, ptr, ...) @wmem_strbuf_append_printf(ptr noundef %31, ptr noundef @.str.18, i32 noundef %34)
  br label %35

35:                                               ; preds = %30
  %36 = load i32, ptr %8, align 4
  %37 = add i32 %36, -1
  store i32 %37, ptr %8, align 4
  %38 = icmp ne i32 %37, 0
  br i1 %38, label %30, label %39, !llvm.loop !11

39:                                               ; preds = %35
  %40 = load ptr, ptr %10, align 8
  %41 = call i64 @wmem_strbuf_get_len(ptr noundef %40)
  store i64 %41, ptr %11, align 8
  %42 = load ptr, ptr %10, align 8
  %43 = load i64, ptr %11, align 8
  %44 = sub i64 %43, 1
  call void @wmem_strbuf_truncate(ptr noundef %42, i64 noundef %44)
  %45 = load ptr, ptr %10, align 8
  %46 = call ptr @wmem_strbuf_finalize(ptr noundef %45)
  store ptr %46, ptr %5, align 8
  store i32 1, ptr %12, align 4
  br label %47

47:                                               ; preds = %39, %19
  call void @llvm.lifetime.end.p0(i64 8, ptr %11) #6
  call void @llvm.lifetime.end.p0(i64 8, ptr %10) #6
  %48 = load ptr, ptr %5, align 8
  ret ptr %48
}

; Function Attrs: null_pointer_is_valid sspstrong uwtable
define ptr @oid_subid2string(ptr noundef %0, ptr noundef %1, i32 noundef %2) #0 {
  %4 = alloca ptr, align 8
  %5 = alloca ptr, align 8
  %6 = alloca i32, align 4
  store ptr %0, ptr %4, align 8
  store ptr %1, ptr %5, align 8
  store i32 %2, ptr %6, align 4
  %7 = load ptr, ptr %4, align 8
  %8 = load ptr, ptr %5, align 8
  %9 = load i32, ptr %6, align 4
  %10 = call ptr @rel_oid_subid2string(ptr noundef %7, ptr noundef %8, i32 noundef %9, i1 noundef zeroext true)
  ret ptr %10
}

; Function Attrs: null_pointer_is_valid sspstrong uwtable
define ptr @oid_get(i32 noundef %0, ptr noundef %1, ptr noundef %2, ptr noundef %3) #0 {
  %5 = alloca ptr, align 8
  %6 = alloca i32, align 4
  %7 = alloca ptr, align 8
  %8 = alloca ptr, align 8
  %9 = alloca ptr, align 8
  %10 = alloca ptr, align 8
  %11 = alloca i32, align 4
  %12 = alloca i32, align 4
  %13 = alloca ptr, align 8
  store i32 %0, ptr %6, align 4
  store ptr %1, ptr %7, align 8
  store ptr %2, ptr %8, align 8
  store ptr %3, ptr %9, align 8
  call void @llvm.lifetime.start.p0(i64 8, ptr %10) #6
  store ptr @oid_root, ptr %10, align 8
  call void @llvm.lifetime.start.p0(i64 4, ptr %11) #6
  %14 = load ptr, ptr %7, align 8
  %15 = icmp ne ptr %14, null
  br i1 %15, label %16, label %20

16:                                               ; preds = %4
  %17 = load ptr, ptr %7, align 8
  %18 = load i32, ptr %17, align 4
  %19 = icmp ule i32 %18, 2
  br i1 %19, label %25, label %20

20:                                               ; preds = %16, %4
  %21 = load ptr, ptr %8, align 8
  store i32 0, ptr %21, align 4
  %22 = load i32, ptr %6, align 4
  %23 = load ptr, ptr %9, align 8
  store i32 %22, ptr %23, align 4
  %24 = load ptr, ptr %10, align 8
  store ptr %24, ptr %5, align 8
  store i32 1, ptr %12, align 4
  br label %61

25:                                               ; preds = %16
  store i32 0, ptr %11, align 4
  br label %26

26:                                               ; preds = %49, %25
  %27 = load i32, ptr %11, align 4
  %28 = load i32, ptr %6, align 4
  %29 = icmp ult i32 %27, %28
  br i1 %29, label %30, label %52

30:                                               ; preds = %26
  call void @llvm.lifetime.start.p0(i64 8, ptr %13) #6
  %31 = load ptr, ptr %10, align 8
  %32 = getelementptr inbounds nuw %struct._oid_info_t, ptr %31, i32 0, i32 3
  %33 = load ptr, ptr %32, align 8
  %34 = load ptr, ptr %7, align 8
  %35 = load i32, ptr %11, align 4
  %36 = zext i32 %35 to i64
  %37 = getelementptr i32, ptr %34, i64 %36
  %38 = load i32, ptr %37, align 4
  %39 = call ptr @wmem_tree_lookup32(ptr noundef %33, i32 noundef %38)
  store ptr %39, ptr %13, align 8
  %40 = load ptr, ptr %13, align 8
  %41 = icmp ne ptr %40, null
  br i1 %41, label %42, label %44

42:                                               ; preds = %30
  %43 = load ptr, ptr %13, align 8
  store ptr %43, ptr %10, align 8
  br label %45

44:                                               ; preds = %30
  store i32 5, ptr %12, align 4
  br label %46

45:                                               ; preds = %42
  store i32 0, ptr %12, align 4
  br label %46

46:                                               ; preds = %44, %45
  call void @llvm.lifetime.end.p0(i64 8, ptr %13) #6
  %47 = load i32, ptr %12, align 4
  switch i32 %47, label %61 [
    i32 0, label %48
    i32 5, label %53
  ]

48:                                               ; preds = %46
  br label %49

49:                                               ; preds = %48
  %50 = load i32, ptr %11, align 4
  %51 = add i32 %50, 1
  store i32 %51, ptr %11, align 4
  br label %26, !llvm.loop !15

52:                                               ; preds = %26
  br label %53

53:                                               ; preds = %52, %46
  %54 = load i32, ptr %11, align 4
  %55 = load ptr, ptr %8, align 8
  store i32 %54, ptr %55, align 4
  %56 = load i32, ptr %6, align 4
  %57 = load i32, ptr %11, align 4
  %58 = sub i32 %56, %57
  %59 = load ptr, ptr %9, align 8
  store i32 %58, ptr %59, align 4
  %60 = load ptr, ptr %10, align 8
  store ptr %60, ptr %5, align 8
  store i32 1, ptr %12, align 4
  br label %61

61:                                               ; preds = %53, %46, %20
  call void @llvm.lifetime.end.p0(i64 4, ptr %11) #6
  call void @llvm.lifetime.end.p0(i64 8, ptr %10) #6
  %62 = load ptr, ptr %5, align 8
  ret ptr %62
}

; Function Attrs: null_pointer_is_valid sspstrong uwtable
define ptr @oid_resolved(ptr noundef %0, i32 noundef %1, ptr noundef %2) #0 {
  %4 = alloca ptr, align 8
  %5 = alloca ptr, align 8
  %6 = alloca i32, align 4
  %7 = alloca ptr, align 8
  %8 = alloca i32, align 4
  %9 = alloca i32, align 4
  %10 = alloca ptr, align 8
  %11 = alloca i32, align 4
  %12 = alloca ptr, align 8
  %13 = alloca ptr, align 8
  %14 = alloca ptr, align 8
  store ptr %0, ptr %5, align 8
  store i32 %1, ptr %6, align 4
  store ptr %2, ptr %7, align 8
  call void @llvm.lifetime.start.p0(i64 4, ptr %8) #6
  call void @llvm.lifetime.start.p0(i64 4, ptr %9) #6
  call void @llvm.lifetime.start.p0(i64 8, ptr %10) #6
  %15 = load ptr, ptr %7, align 8
  %16 = icmp ne ptr %15, null
  br i1 %16, label %17, label %21

17:                                               ; preds = %3
  %18 = load ptr, ptr %7, align 8
  %19 = load i32, ptr %18, align 4
  %20 = icmp ule i32 %19, 2
  br i1 %20, label %24, label %21

21:                                               ; preds = %17, %3
  %22 = load ptr, ptr %5, align 8
  %23 = call noalias ptr @wmem_strdup(ptr noundef %22, ptr noundef @.str.20)
  store ptr %23, ptr %4, align 8
  store i32 1, ptr %11, align 4
  br label %98

24:                                               ; preds = %17
  %25 = load i32, ptr %6, align 4
  %26 = load ptr, ptr %7, align 8
  %27 = call ptr @oid_get(i32 noundef %25, ptr noundef %26, ptr noundef %8, ptr noundef %9)
  store ptr %27, ptr %10, align 8
  br label %28

28:                                               ; preds = %44, %24
  %29 = load ptr, ptr %10, align 8
  %30 = getelementptr inbounds nuw %struct._oid_info_t, ptr %29, i32 0, i32 1
  %31 = load ptr, ptr %30, align 8
  %32 = icmp ne ptr %31, null
  %33 = xor i1 %32, true
  br i1 %33, label %34, label %49

34:                                               ; preds = %28
  %35 = load ptr, ptr %10, align 8
  %36 = getelementptr inbounds nuw %struct._oid_info_t, ptr %35, i32 0, i32 8
  %37 = load ptr, ptr %36, align 8
  store ptr %37, ptr %10, align 8
  %38 = icmp ne ptr %37, null
  br i1 %38, label %44, label %39

39:                                               ; preds = %34
  %40 = load ptr, ptr %5, align 8
  %41 = load ptr, ptr %7, align 8
  %42 = load i32, ptr %6, align 4
  %43 = call ptr @oid_subid2string(ptr noundef %40, ptr noundef %41, i32 noundef %42)
  store ptr %43, ptr %4, align 8
  store i32 1, ptr %11, align 4
  br label %98

44:                                               ; preds = %34
  %45 = load i32, ptr %9, align 4
  %46 = add i32 %45, 1
  store i32 %46, ptr %9, align 4
  %47 = load i32, ptr %8, align 4
  %48 = add i32 %47, -1
  store i32 %48, ptr %8, align 4
  br label %28, !llvm.loop !16

49:                                               ; preds = %28
  %50 = load i32, ptr %9, align 4
  %51 = icmp ne i32 %50, 0
  br i1 %51, label %52, label %80

52:                                               ; preds = %49
  call void @llvm.lifetime.start.p0(i64 8, ptr %12) #6
  call void @llvm.lifetime.start.p0(i64 8, ptr %13) #6
  %53 = load ptr, ptr %7, align 8
  %54 = load i32, ptr %8, align 4
  %55 = call ptr @oid_subid2string(ptr noundef null, ptr noundef %53, i32 noundef %54)
  store ptr %55, ptr %13, align 8
  call void @llvm.lifetime.start.p0(i64 8, ptr %14) #6
  %56 = load ptr, ptr %7, align 8
  %57 = load i32, ptr %8, align 4
  %58 = zext i32 %57 to i64
  %59 = getelementptr i32, ptr %56, i64 %58
  %60 = load i32, ptr %9, align 4
  %61 = call ptr @oid_subid2string(ptr noundef null, ptr noundef %59, i32 noundef %60)
  store ptr %61, ptr %14, align 8
  %62 = load ptr, ptr %5, align 8
  %63 = load ptr, ptr %10, align 8
  %64 = getelementptr inbounds nuw %struct._oid_info_t, ptr %63, i32 0, i32 1
  %65 = load ptr, ptr %64, align 8
  %66 = icmp ne ptr %65, null
  br i1 %66, label %67, label %71

67:                                               ; preds = %52
  %68 = load ptr, ptr %10, align 8
  %69 = getelementptr inbounds nuw %struct._oid_info_t, ptr %68, i32 0, i32 1
  %70 = load ptr, ptr %69, align 8
  br label %73

71:                                               ; preds = %52
  %72 = load ptr, ptr %13, align 8
  br label %73

73:                                               ; preds = %71, %67
  %74 = phi ptr [ %70, %67 ], [ %72, %71 ]
  %75 = load ptr, ptr %14, align 8
  %76 = call noalias ptr (ptr, ptr, ...) @wmem_strconcat(ptr noundef %62, ptr noundef %74, ptr noundef @.str.21, ptr noundef %75, ptr noundef null)
  store ptr %76, ptr %12, align 8
  %77 = load ptr, ptr %13, align 8
  call void @wmem_free(ptr noundef null, ptr noundef %77)
  %78 = load ptr, ptr %14, align 8
  call void @wmem_free(ptr noundef null, ptr noundef %78)
  %79 = load ptr, ptr %12, align 8
  store ptr %79, ptr %4, align 8
  store i32 1, ptr %11, align 4
  call void @llvm.lifetime.end.p0(i64 8, ptr %14) #6
  call void @llvm.lifetime.end.p0(i64 8, ptr %13) #6
  call void @llvm.lifetime.end.p0(i64 8, ptr %12) #6
  br label %98

80:                                               ; preds = %49
  %81 = load ptr, ptr %10, align 8
  %82 = getelementptr inbounds nuw %struct._oid_info_t, ptr %81, i32 0, i32 1
  %83 = load ptr, ptr %82, align 8
  %84 = icmp ne ptr %83, null
  br i1 %84, label %85, label %91

85:                                               ; preds = %80
  %86 = load ptr, ptr %5, align 8
  %87 = load ptr, ptr %10, align 8
  %88 = getelementptr inbounds nuw %struct._oid_info_t, ptr %87, i32 0, i32 1
  %89 = load ptr, ptr %88, align 8
  %90 = call noalias ptr @wmem_strdup(ptr noundef %86, ptr noundef %89)
  br label %96

91:                                               ; preds = %80
  %92 = load ptr, ptr %5, align 8
  %93 = load ptr, ptr %7, align 8
  %94 = load i32, ptr %8, align 4
  %95 = call ptr @oid_subid2string(ptr noundef %92, ptr noundef %93, i32 noundef %94)
  br label %96

96:                                               ; preds = %91, %85
  %97 = phi ptr [ %90, %85 ], [ %95, %91 ]
  store ptr %97, ptr %4, align 8
  store i32 1, ptr %11, align 4
  br label %98

98:                                               ; preds = %96, %73, %39, %21
  call void @llvm.lifetime.end.p0(i64 8, ptr %10) #6
  call void @llvm.lifetime.end.p0(i64 4, ptr %9) #6
  call void @llvm.lifetime.end.p0(i64 4, ptr %8) #6
  %99 = load ptr, ptr %4, align 8
  ret ptr %99
}