; Function Attrs: null_pointer_is_valid sspstrong uwtable
define ptr @oid_resolved(ptr noundef %0, i32 noundef %1, ptr noundef readonly captures(address) %2) local_unnamed_addr #0 {
  %.not = icmp eq ptr %2, null
  br i1 %.not, label %7, label %4

4:                                                ; preds = %3
  %5 = load i32, ptr %2, align 4
  %6 = icmp ult i32 %5, 3
  br i1 %6, label %.preheader.i, label %7

7:                                                ; preds = %4, %3
  %8 = tail call noalias ptr @wmem_strdup(ptr noundef %0, ptr noundef nonnull @.str.20)
  br label %oid_subid2string.exit

.preheader.i:                                     ; preds = %4
  %.not33.i = icmp eq i32 %1, 0
  br i1 %.not33.i, label %oid_get.exit, label %.lr.ph.preheader.i

.lr.ph.preheader.i:                               ; preds = %.preheader.i
  %wide.trip.count.i = zext i32 %1 to i64
  br label %.lr.ph.i

.lr.ph.i:                                         ; preds = %14, %.lr.ph.preheader.i
  %indvars.iv.i = phi i64 [ 0, %.lr.ph.preheader.i ], [ %indvars.iv.next.i, %14 ]
  %.02327.i = phi ptr [ @oid_root, %.lr.ph.preheader.i ], [ %13, %14 ]
  %9 = getelementptr inbounds nuw i8, ptr %.02327.i, i64 24
  %10 = load ptr, ptr %9, align 8
  %11 = getelementptr i32, ptr %2, i64 %indvars.iv.i
  %12 = load i32, ptr %11, align 4
  %13 = tail call ptr @wmem_tree_lookup32(ptr noundef %10, i32 noundef %12)
  %.not26.i = icmp eq ptr %13, null
  br i1 %.not26.i, label %._crit_edge.loopexit.split.loop.exit.i, label %14

14:                                               ; preds = %.lr.ph.i
  %indvars.iv.next.i = add nuw nsw i64 %indvars.iv.i, 1
  %exitcond.not.i = icmp eq i64 %indvars.iv.next.i, %wide.trip.count.i
  br i1 %exitcond.not.i, label %oid_get.exit, label %.lr.ph.i, !llvm.loop !15

._crit_edge.loopexit.split.loop.exit.i:           ; preds = %.lr.ph.i
  %15 = trunc nuw i64 %indvars.iv.i to i32
  br label %oid_get.exit

oid_get.exit:                                     ; preds = %14, %.preheader.i, %._crit_edge.loopexit.split.loop.exit.i
  %.023.lcssa.i = phi ptr [ @oid_root, %.preheader.i ], [ %.02327.i, %._crit_edge.loopexit.split.loop.exit.i ], [ %13, %14 ]
  %.022.lcssa.i = phi i32 [ 0, %.preheader.i ], [ %15, %._crit_edge.loopexit.split.loop.exit.i ], [ %1, %14 ]
  %16 = sub i32 %1, %.022.lcssa.i
  %17 = getelementptr inbounds nuw i8, ptr %.023.lcssa.i, i64 8
  %18 = load ptr, ptr %17, align 8
  %.not3062 = icmp eq ptr %18, null
  br i1 %.not3062, label %.lr.ph, label %._crit_edge

.lr.ph:                                           ; preds = %oid_get.exit, %34
  %.02565 = phi ptr [ %20, %34 ], [ %.023.lcssa.i, %oid_get.exit ]
  %.05164 = phi i32 [ %35, %34 ], [ %16, %oid_get.exit ]
  %.05263 = phi i32 [ %36, %34 ], [ %.022.lcssa.i, %oid_get.exit ]
  %19 = getelementptr inbounds nuw i8, ptr %.02565, i64 64
  %20 = load ptr, ptr %19, align 8
  %.not33 = icmp eq ptr %20, null
  br i1 %.not33, label %21, label %34

21:                                               ; preds = %.lr.ph
  br i1 %.not33.i, label %22, label %24

22:                                               ; preds = %21
  %23 = tail call noalias ptr @wmem_strdup(ptr noundef %0, ptr noundef nonnull @.str.16)
  br label %oid_subid2string.exit

24:                                               ; preds = %21
  %25 = tail call noalias ptr @wmem_strbuf_new(ptr noundef %0, ptr noundef nonnull @.str.17)
  br label %26

26:                                               ; preds = %26, %24
  %.015.i.i = phi i32 [ %1, %24 ], [ %29, %26 ]
  %.014.i.i = phi ptr [ %2, %24 ], [ %27, %26 ]
  %27 = getelementptr i8, ptr %.014.i.i, i64 4
  %28 = load i32, ptr %.014.i.i, align 4
  tail call void (ptr, ptr, ...) @wmem_strbuf_append_printf(ptr noundef %25, ptr noundef nonnull @.str.18, i32 noundef %28)
  %29 = add i32 %.015.i.i, -1
  %.not.i.i = icmp eq i32 %29, 0
  br i1 %.not.i.i, label %30, label %26, !llvm.loop !6

30:                                               ; preds = %26
  %31 = tail call i64 @wmem_strbuf_get_len(ptr noundef %25)
  %32 = add i64 %31, -1
  tail call void @wmem_strbuf_truncate(ptr noundef %25, i64 noundef %32)
  %33 = tail call ptr @wmem_strbuf_finalize(ptr noundef %25)
  br label %oid_subid2string.exit

34:                                               ; preds = %.lr.ph
  %35 = add i32 %.05164, 1
  %36 = add i32 %.05263, -1
  %37 = getelementptr inbounds nuw i8, ptr %20, i64 8
  %38 = load ptr, ptr %37, align 8
  %.not30 = icmp eq ptr %38, null
  br i1 %.not30, label %.lr.ph, label %._crit_edge, !llvm.loop !16

._crit_edge:                                      ; preds = %34, %oid_get.exit
  %.025.lcssa = phi ptr [ %.023.lcssa.i, %oid_get.exit ], [ %20, %34 ]
  %.052.lcssa = phi i32 [ %.022.lcssa.i, %oid_get.exit ], [ %36, %34 ]
  %.051.lcssa = phi i32 [ %16, %oid_get.exit ], [ %35, %34 ]
  %.lcssa = phi ptr [ %18, %oid_get.exit ], [ %38, %34 ]
  %39 = getelementptr inbounds nuw i8, ptr %.025.lcssa, i64 8
  %.not31 = icmp eq i32 %.051.lcssa, 0
  br i1 %.not31, label %71, label %40

40:                                               ; preds = %._crit_edge
  %41 = icmp eq i32 %.052.lcssa, 0
  br i1 %41, label %42, label %44

42:                                               ; preds = %40
  %43 = tail call noalias ptr @wmem_strdup(ptr noundef null, ptr noundef nonnull @.str.16)
  br label %oid_subid2string.exit39

44:                                               ; preds = %40
  %45 = tail call noalias ptr @wmem_strbuf_new(ptr noundef null, ptr noundef nonnull @.str.17)
  br label %46

46:                                               ; preds = %46, %44
  %.015.i.i35 = phi i32 [ %.052.lcssa, %44 ], [ %49, %46 ]
  %.014.i.i36 = phi ptr [ %2, %44 ], [ %47, %46 ]
  %47 = getelementptr i8, ptr %.014.i.i36, i64 4
  %48 = load i32, ptr %.014.i.i36, align 4
  tail call void (ptr, ptr, ...) @wmem_strbuf_append_printf(ptr noundef %45, ptr noundef nonnull @.str.18, i32 noundef %48)
  %49 = add i32 %.015.i.i35, -1
  %.not.i.i37 = icmp eq i32 %49, 0
  br i1 %.not.i.i37, label %50, label %46, !llvm.loop !6

50:                                               ; preds = %46
  %51 = tail call i64 @wmem_strbuf_get_len(ptr noundef %45)
  %52 = add i64 %51, -1
  tail call void @wmem_strbuf_truncate(ptr noundef %45, i64 noundef %52)
  %53 = tail call ptr @wmem_strbuf_finalize(ptr noundef %45)
  br label %oid_subid2string.exit39

oid_subid2string.exit39:                          ; preds = %42, %50
  %.0.i.i38 = phi ptr [ %43, %42 ], [ %53, %50 ]
  %54 = zext i32 %.052.lcssa to i64
  %55 = getelementptr i32, ptr %2, i64 %54
  %56 = icmp eq ptr %55, null
  br i1 %56, label %57, label %59

57:                                               ; preds = %oid_subid2string.exit39
  %58 = tail call noalias ptr @wmem_strdup(ptr noundef null, ptr noundef nonnull @.str.16)
  br label %oid_subid2string.exit45

59:                                               ; preds = %oid_subid2string.exit39
  %60 = tail call noalias ptr @wmem_strbuf_new(ptr noundef null, ptr noundef nonnull @.str.17)
  br label %61

61:                                               ; preds = %61, %59
  %.015.i.i41 = phi i32 [ %.051.lcssa, %59 ], [ %64, %61 ]
  %.014.i.i42 = phi ptr [ %55, %59 ], [ %62, %61 ]
  %62 = getelementptr i8, ptr %.014.i.i42, i64 4
  %63 = load i32, ptr %.014.i.i42, align 4
  tail call void (ptr, ptr, ...) @wmem_strbuf_append_printf(ptr noundef %60, ptr noundef nonnull @.str.18, i32 noundef %63)
  %64 = add i32 %.015.i.i41, -1
  %.not.i.i43 = icmp eq i32 %64, 0
  br i1 %.not.i.i43, label %65, label %61, !llvm.loop !6

65:                                               ; preds = %61
  %66 = tail call i64 @wmem_strbuf_get_len(ptr noundef %60)
  %67 = add i64 %66, -1
  tail call void @wmem_strbuf_truncate(ptr noundef %60, i64 noundef %67)
  %68 = tail call ptr @wmem_strbuf_finalize(ptr noundef %60)
  br label %oid_subid2string.exit45

oid_subid2string.exit45:                          ; preds = %57, %65
  %.0.i.i44 = phi ptr [ %58, %57 ], [ %68, %65 ]
  %69 = load ptr, ptr %39, align 8
  %.not32 = icmp eq ptr %69, null
  %. = select i1 %.not32, ptr %.0.i.i38, ptr %69
  %70 = tail call noalias ptr (ptr, ptr, ...) @wmem_strconcat(ptr noundef %0, ptr noundef %., ptr noundef nonnull @.str.21, ptr noundef %.0.i.i44, ptr noundef null)
  tail call void @wmem_free(ptr noundef null, ptr noundef %.0.i.i38)
  tail call void @wmem_free(ptr noundef null, ptr noundef %.0.i.i44)
  br label %oid_subid2string.exit

71:                                               ; preds = %._crit_edge
  %72 = tail call noalias ptr @wmem_strdup(ptr noundef %0, ptr noundef nonnull %.lcssa)
  br label %oid_subid2string.exit

oid_subid2string.exit:                            ; preds = %30, %22, %71, %oid_subid2string.exit45, %7
  %.0 = phi ptr [ %70, %oid_subid2string.exit45 ], [ %72, %71 ], [ %8, %7 ], [ %23, %22 ], [ %33, %30 ]
  ret ptr %.0
}